; Function Attrs: null_pointer_is_valid sspstrong uwtable
define internal void @for_reject(ptr noundef %0, ptr noundef %1, ptr noundef %2, i32 noundef %3, i32 noundef %4) #0 {
  %6 = icmp eq i32 %3, 0
  br i1 %6, label %7, label %9

7:                                                ; preds = %5
  %8 = tail call ptr @proto_tree_add_expert(ptr noundef %2, ptr noundef %1, ptr noundef nonnull @ei_ansi_801_short_data, ptr noundef %0, i32 noundef %4, i32 noundef 0)
  br label %26

9:                                                ; preds = %5
  %10 = tail call zeroext i8 @tvb_get_uint8(ptr noundef %0, i32 noundef %4)
  %11 = zext i8 %10 to i32
  %12 = lshr i32 %11, 4
  %13 = tail call ptr @val_to_str_const(i32 noundef %12, ptr noundef nonnull @rev_req_type_strings, ptr noundef nonnull @.str.74)
  %14 = load i32, ptr @hf_ansi_801_reject_request_type, align 4
  %15 = tail call ptr (ptr, i32, ptr, i32, i32, i32, ptr, ...) @proto_tree_add_uint_format_value(ptr noundef %2, i32 noundef %14, ptr noundef %0, i32 noundef %4, i32 noundef 1, i32 noundef %11, ptr noundef nonnull @.str.258, i32 noundef %12, ptr noundef %13)
  %16 = lshr i32 %11, 1
  %17 = and i32 %16, 7
  %switch.selectcmp = icmp eq i32 %17, 1
  %switch.select = select i1 %switch.selectcmp, ptr @.str.274, ptr @.str.74
  %switch.selectcmp36 = icmp eq i32 %17, 0
  %switch.select37 = select i1 %switch.selectcmp36, ptr @.str.273, ptr %switch.select
  %18 = load i32, ptr @hf_ansi_801_reject_reason, align 4
  %19 = tail call ptr (ptr, i32, ptr, i32, i32, i32, ptr, ...) @proto_tree_add_uint_format_value(ptr noundef %2, i32 noundef %18, ptr noundef %0, i32 noundef %4, i32 noundef 1, i32 noundef %11, ptr noundef nonnull @.str.275, ptr noundef nonnull %switch.select37)
  %20 = load i32, ptr @hf_ansi_801_reserved8_01, align 4
  %21 = tail call ptr @proto_tree_add_item(ptr noundef %2, i32 noundef %20, ptr noundef %0, i32 noundef %4, i32 noundef 1, i32 noundef 0)
  %.not = icmp eq i32 %3, 1
  br i1 %.not, label %26, label %22

22:                                               ; preds = %9
  %23 = add i32 %4, 1
  %24 = add i32 %3, -1
  %25 = tail call ptr @proto_tree_add_expert(ptr noundef %2, ptr noundef %1, ptr noundef nonnull @ei_ansi_801_extraneous_data, ptr noundef %0, i32 noundef %23, i32 noundef %24)
  br label %26

26:                                               ; preds = %9, %22, %7
  ret void
}